target datalayout = "e-m:e-p270:32:32-p271:32:32-p272:64:64-i64:64-i128:128-f80:128-n8:16:32:64-S128"
target triple = "x86_64-pc-linux-gnu"

%struct.CharSet = type { i32, i32, ptr, i32, ptr }

; Function Attrs: nounwind uwtable
define internal void @ReleaseCharSet(ptr noundef %0) #0 {
  %2 = alloca ptr, align 8
  store ptr %0, ptr %2, align 8
  %3 = load ptr, ptr %2, align 8
  %4 = getelementptr inbounds %struct.CharSet, ptr %3, i32 0, i32 2
  %5 = load ptr, ptr %4, align 8
  call void @_efree(ptr noundef %5)
  %6 = load ptr, ptr %2, align 8
  %7 = getelementptr inbounds %struct.CharSet, ptr %6, i32 0, i32 4
  %8 = load ptr, ptr %7, align 8
  %9 = icmp ne ptr %8, null
  br i1 %9, label %10, label %14

10:                                               ; preds = %1
  %11 = load ptr, ptr %2, align 8
  %12 = getelementptr inbounds %struct.CharSet, ptr %11, i32 0, i32 4
  %13 = load ptr, ptr %12, align 8
  call void @_efree(ptr noundef %13)
  br label %14

14:                                               ; preds = %10, %1
  ret void
}