; Function Attrs: nounwind uwtable
define internal fastcc void @ReleaseCharSet(ptr nocapture noundef readonly %0) unnamed_addr #0 {
  %2 = getelementptr inbounds i8, ptr %0, i64 8
  %3 = load ptr, ptr %2, align 8
  tail call void @_efree(ptr noundef %3) #10
  %4 = getelementptr inbounds i8, ptr %0, i64 24
  %5 = load ptr, ptr %4, align 8
  %.not = icmp eq ptr %5, null
  br i1 %.not, label %7, label %6

6:                                                ; preds = %1
  tail call void @_efree(ptr noundef nonnull %5) #10
  br label %7

7:                                                ; preds = %6, %1
  ret void
}